target datalayout = "e-m:e-p270:32:32-p271:32:32-p272:64:64-i64:64-i128:128-f80:128-n8:16:32:64-S128"
target triple = "x86_64-pc-linux-gnu"

@hf_rfc4571_header_len = internal global i32 0, align 4

; Function Attrs: null_pointer_is_valid sspstrong uwtable
define internal i32 @dissect_full_rfc4571(ptr noundef %0, ptr noundef %1, ptr noundef %2, ptr noundef %3) #1 {
  %5 = alloca i32, align 4
  %6 = alloca ptr, align 8
  %7 = alloca ptr, align 8
  %8 = alloca ptr, align 8
  %9 = alloca ptr, align 8
  %10 = alloca i32, align 4
  %11 = alloca i32, align 4
  %12 = alloca i32, align 4
  %13 = alloca ptr, align 8
  store ptr %0, ptr %6, align 8
  store ptr %1, ptr %7, align 8
  store ptr %2, ptr %8, align 8
  store ptr %3, ptr %9, align 8
  call void @llvm.lifetime.start.p0(i64 4, ptr %10) #14
  store i32 0, ptr %10, align 4
  call void @llvm.lifetime.start.p0(i64 4, ptr %11) #14
  store i32 0, ptr %11, align 4
  %14 = load ptr, ptr %8, align 8
  %15 = load i32, ptr @hf_rfc4571_header_len, align 4
  %16 = load ptr, ptr %6, align 8
  %17 = load i32, ptr %10, align 4
  %18 = call ptr @proto_tree_add_item_ret_uint(ptr noundef %14, i32 noundef %15, ptr noundef %16, i32 noundef %17, i32 noundef 2, i32 noundef 0, ptr noundef %11)
  %19 = load i32, ptr %11, align 4
  %20 = icmp eq i32 %19, 0
  br i1 %20, label %21, label %22

21:                                               ; preds = %4
  store i32 2, ptr %5, align 4
  store i32 1, ptr %12, align 4
  br label %35

22:                                               ; preds = %4
  %23 = load i32, ptr %10, align 4
  %24 = add i32 %23, 2
  store i32 %24, ptr %10, align 4
  call void @llvm.lifetime.start.p0(i64 8, ptr %13) #14
  %25 = load ptr, ptr %6, align 8
  %26 = load i32, ptr %10, align 4
  %27 = call ptr @tvb_new_subset_remaining(ptr noundef %25, i32 noundef %26)
  store ptr %27, ptr %13, align 8
  %28 = load ptr, ptr %13, align 8
  %29 = load ptr, ptr %7, align 8
  %30 = load ptr, ptr %8, align 8
  %31 = load ptr, ptr %9, align 8
  %32 = call i32 @dissect_rtp(ptr noundef %28, ptr noundef %29, ptr noundef %30, ptr noundef %31)
  %33 = load ptr, ptr %6, align 8
  %34 = call i32 @tvb_reported_length(ptr noundef %33)
  store i32 %34, ptr %5, align 4
  store i32 1, ptr %12, align 4
  call void @llvm.lifetime.end.p0(i64 8, ptr %13) #14
  br label %35

35:                                               ; preds = %22, %21
  call void @llvm.lifetime.end.p0(i64 4, ptr %11) #14
  call void @llvm.lifetime.end.p0(i64 4, ptr %10) #14
  %36 = load i32, ptr %5, align 4
  ret i32 %36
}