; Function Attrs: null_pointer_is_valid sspstrong uwtable
define internal i32 @dissect_full_rfc4571(ptr noundef %0, ptr noundef %1, ptr noundef %2, ptr readnone captures(none) %3) #1 {
  %5 = alloca i32, align 4
  call void @llvm.lifetime.start.p0(i64 4, ptr nonnull %5) #15
  store i32 0, ptr %5, align 4
  %6 = load i32, ptr @hf_rfc4571_header_len, align 4
  %7 = call ptr @proto_tree_add_item_ret_uint(ptr noundef %2, i32 noundef %6, ptr noundef %0, i32 noundef 0, i32 noundef 2, i32 noundef 0, ptr noundef nonnull %5)
  %8 = load i32, ptr %5, align 4
  %9 = icmp eq i32 %8, 0
  br i1 %9, label %14, label %10

10:                                               ; preds = %4
  %11 = call ptr @tvb_new_subset_remaining(ptr noundef %0, i32 noundef 2)
  %12 = call i32 @dissect_rtp(ptr noundef %11, ptr noundef %1, ptr noundef %2, ptr poison)
  %13 = call i32 @tvb_reported_length(ptr noundef %0)
  br label %14

14:                                               ; preds = %4, %10
  %.0 = phi i32 [ %13, %10 ], [ 2, %4 ]
  call void @llvm.lifetime.end.p0(i64 4, ptr nonnull %5) #15
  ret i32 %.0
}